(dp0
S'METTS MARK'
p1
(dp2
S'to_messages'
p3
I807
sS'deferral_payments'
p4
I0
sS'to_poi_fraction'
p5
F0.034482758620689655
sS'expenses'
p6
I94299
sS'poi'
p7
I00
sS'deferred_income'
p8
I0
sS'email_address'
p9
S'mark.metts@enron.com'
p10
sS'long_term_incentive'
p11
I0
sS'restricted_stock_deferred'
p12
I0
sS'shared_receipt_with_poi'
p13
I702
sS'loan_advances'
p14
I0
sS'from_messages'
p15
I29
sS'other'
p16
I1740
sS'director_fees'
p17
I0
sS'bonus'
p18
I600000
sS'from_poi_fraction'
p19
F0.04708798017348203
sS'total_stock_value'
p20
I585062
sS'from_poi_to_this_person'
p21
I38
sS'from_this_person_to_poi'
p22
I1
sS'restricted_stock'
p23
I585062
sS'salary'
p24
I365788
sS'total_payments'
p25
I1061827
sS'exercised_stock_options'
p26
I0
sS'salary_bonus_fraction'
p27
I0
ssS'BAXTER JOHN C'
p28
(dp29
g3
I0
sg4
I1295738
sg5
I0
sg6
I11200
sg7
I00
sg8
I-1386055
sg9
S'NaN'
p30
sg11
I1586055
sg12
I0
sg13
I0
sg14
I0
sg15
I0
sg16
I2660303
sg17
I0
sg18
I1200000
sg19
I0
sg20
I10623258
sg21
I0
sg22
I0
sg23
I3942714
sg24
I267102
sg25
I5634343
sg26
I6680544
sg27
I0
ssS'ELLIOTT STEVEN'
p31
(dp32
g3
I0
sg4
I0
sg5
I0
sg6
I78552
sg7
I00
sg8
I-400729
sg9
S'steven.elliott@enron.com'
p33
sg11
I0
sg12
I0
sg13
I0
sg14
I0
sg15
I0
sg16
I12961
sg17
I0
sg18
I350000
sg19
I0
sg20
I6678735
sg21
I0
sg22
I0
sg23
I1788391
sg24
I170941
sg25
I211725
sg26
I4890344
sg27
I0
ssS'CORDES WILLIAM R'
p34
(dp35
g3
I764
sg4
I0
sg5
F0.0
sg6
I0
sg7
I00
sg8
I0
sg9
S'bill.cordes@enron.com'
p36
sg11
I0
sg12
I0
sg13
I58
sg14
I0
sg15
I12
sg16
I0
sg17
I0
sg18
I0
sg19
F0.013089005235602094
sg20
I1038185
sg21
I10
sg22
I0
sg23
I386335
sg24
I0
sg25
I0
sg26
I651850
sg27
I0
ssS'HANNON KEVIN P'
p37
(dp38
g3
I1045
sg4
I0
sg5
F0.65625
sg6
I34039
sg7
I01
sg8
I-3117011
sg9
S'kevin.hannon@enron.com'
p39
sg11
I1617011
sg12
I0
sg13
I1035
sg14
I0
sg15
I32
sg16
I11350
sg17
I0
sg18
I1500000
sg19
F0.03062200956937799
sg20
I6391065
sg21
I32
sg22
I21
sg23
I853064
sg24
I243293
sg25
I288682
sg26
I5538001
sg27
I0
ssS'MORDAUNT KRISTINA M'
p40
(dp41
g3
I0
sg4
I0
sg5
I0
sg6
I35018
sg7
I00
sg8
I0
sg9
S'kristina.mordaunt@enron.com'
p42
sg11
I0
sg12
I0
sg13
I0
sg14
I0
sg15
I0
sg16
I1411
sg17
I0
sg18
I325000
sg19
I0
sg20
I208510
sg21
I0
sg22
I0
sg23
I208510
sg24
I267093
sg25
I628522
sg26
I0
sg27
I0
ssS'MEYER ROCKFORD G'
p43
(dp44
g3
I232
sg4
I1848227
sg5
F0.0
sg6
I0
sg7
I00
sg8
I0
sg9
S'rockford.meyer@enron.com'
p45
sg11
I0
sg12
I0
sg13
I22
sg14
I0
sg15
I28
sg16
I0
sg17
I0
sg18
I0
sg19
F0.0
sg20
I955873
sg21
I0
sg22
I0
sg23
I462384
sg24
I0
sg25
I1848227
sg26
I493489
sg27
I0
ssS'MCMAHON JEFFREY'
p46
(dp47
g3
I2355
sg4
I0
sg5
F0.5416666666666666
sg6
I137108
sg7
I00
sg8
I0
sg9
S'jeffrey.mcmahon@enron.com'
p48
sg11
I694862
sg12
I0
sg13
I2228
sg14
I0
sg15
I48
sg16
I297353
sg17
I0
sg18
I2600000
sg19
F0.024628450106157114
sg20
I1662855
sg21
I58
sg22
I26
sg23
I558801
sg24
I370448
sg25
I4099771
sg26
I1104054
sg27
I0
ssS'HORTON STANLEY C'
p49
(dp50
g3
I2350
sg4
I3131860
sg5
F0.013979496738117428
sg6
I0
sg7
I00
sg8
I0
sg9
S'stanley.horton@enron.com'
p51
sg11
I0
sg12
I0
sg13
I1074
sg14
I0
sg15
I1073
sg16
I0
sg17
I0
sg18
I0
sg19
F0.01872340425531915
sg20
I7256648
sg21
I44
sg22
I15
sg23
I2046079
sg24
I0
sg25
I3131860
sg26
I5210569
sg27
I0
ssS'PIPER GREGORY F'
p52
(dp53
g3
I1238
sg4
I1130036
sg5
F0.21621621621621623
sg6
I43057
sg7
I00
sg8
I-33333
sg9
S'greg.piper@enron.com'
p54
sg11
I0
sg12
I-409554
sg13
I742
sg14
I0
sg15
I222
sg16
I778
sg17
I0
sg18
I400000
sg19
F0.049273021001615507
sg20
I880290
sg21
I61
sg22
I48
sg23
I409554
sg24
I197091
sg25
I1737629
sg26
I880290
sg27
I0
ssS'HUMPHREY GENE E'
p55
(dp56
g3
I128
sg4
I2964506
sg5
F1.0
sg6
I4994
sg7
I00
sg8
I0
sg9
S'gene.humphrey@enron.com'
p57
sg11
I0
sg12
I0
sg13
I119
sg14
I0
sg15
I17
sg16
I0
sg17
I0
sg18
I0
sg19
F0.078125
sg20
I2282768
sg21
I10
sg22
I17
sg23
I0
sg24
I130724
sg25
I3100224
sg26
I2282768
sg27
I0
ssS'UMANOFF ADAM S'
p58
(dp59
g3
I111
sg4
I0
sg5
F0.0
sg6
I53122
sg7
I00
sg8
I0
sg9
S'adam.umanoff@enron.com'
p60
sg11
I0
sg12
I0
sg13
I41
sg14
I0
sg15
I18
sg16
I0
sg17
I0
sg18
I788750
sg19
F0.10810810810810811
sg20
I0
sg21
I12
sg22
I0
sg23
I0
sg24
I288589
sg25
I1130461
sg26
I0
sg27
I0
ssS'BLACHMAN JEREMY M'
p61
(dp62
g3
I2475
sg4
I0
sg5
F0.14285714285714285
sg6
I84208
sg7
I00
sg8
I0
sg9
S'jeremy.blachman@enron.com'
p63
sg11
I831809
sg12
I0
sg13
I2326
sg14
I0
sg15
I14
sg16
I272
sg17
I0
sg18
I850000
sg19
F0.010101010101010102
sg20
I954354
sg21
I25
sg22
I2
sg23
I189041
sg24
I248546
sg25
I2014835
sg26
I765313
sg27
I0
ssS'SUNDE MARTIN'
p64
(dp65
g3
I2647
sg4
I0
sg5
F0.34210526315789475
sg6
I0
sg7
I00
sg8
I0
sg9
S'marty.sunde@enron.com'
p66
sg11
I476451
sg12
I0
sg13
I2565
sg14
I0
sg15
I38
sg16
I111122
sg17
I0
sg18
I700000
sg19
F0.013978088401964487
sg20
I698920
sg21
I37
sg22
I13
sg23
I698920
sg24
I257486
sg25
I1545059
sg26
I0
sg27
I0
ssS'GIBBS DANA R'
p67
(dp68
g3
I169
sg4
I504610
sg5
F0.0
sg6
I0
sg7
I00
sg8
I0
sg9
S'dana.gibbs@enron.com'
p69
sg11
I461912
sg12
I0
sg13
I23
sg14
I0
sg15
I12
sg16
I0
sg17
I0
sg18
I0
sg19
F0.0
sg20
I2218275
sg21
I0
sg22
I0
sg23
I0
sg24
I0
sg25
I966522
sg26
I2218275
sg27
I0
ssS'LOWRY CHARLES P'
p70
(dp71
g3
I0
sg4
I0
sg5
I0
sg6
I0
sg7
I00
sg8
I0
sg9
g30
sg11
I0
sg12
I-153686
sg13
I0
sg14
I0
sg15
I0
sg16
I0
sg17
I0
sg18
I0
sg19
I0
sg20
I372205
sg21
I0
sg22
I0
sg23
I153686
sg24
I0
sg25
I0
sg26
I372205
sg27
I0
ssS'COLWELL WESLEY'
p72
(dp73
g3
I1758
sg4
I27610
sg5
F0.275
sg6
I16514
sg7
I01
sg8
I-144062
sg9
S'wes.colwell@enron.com'
p74
sg11
I0
sg12
I0
sg13
I1132
sg14
I0
sg15
I40
sg16
I101740
sg17
I0
sg18
I1200000
sg19
F0.13651877133105803
sg20
I698242
sg21
I240
sg22
I11
sg23
I698242
sg24
I288542
sg25
I1490344
sg26
I0
sg27
I0
ssS'MULLER MARK S'
p75
(dp76
g3
I136
sg4
I842924
sg5
F0.0
sg6
I0
sg7
I00
sg8
I-719000
sg9
S's..muller@enron.com'
p77
sg11
I1725545
sg12
I0
sg13
I114
sg14
I0
sg15
I16
sg16
I947
sg17
I0
sg18
I1100000
sg19
F0.08823529411764706
sg20
I1416848
sg21
I12
sg22
I0
sg23
I360528
sg24
I251654
sg25
I3202070
sg26
I1056320
sg27
I0
ssS'JACKSON CHARLENE R'
p78
(dp79
g3
I258
sg4
I0
sg5
F0.3392857142857143
sg6
I10181
sg7
I00
sg8
I0
sg9
S'charlene.jackson@enron.com'
p80
sg11
I0
sg12
I0
sg13
I117
sg14
I0
sg15
I56
sg16
I2435
sg17
I0
sg18
I250000
sg19
F0.09689922480620156
sg20
I725735
sg21
I25
sg22
I19
sg23
I540672
sg24
I288558
sg25
I551174
sg26
I185063
sg27
I1
ssS'WESTFAHL RICHARD K'
p81
(dp82
g3
I0
sg4
I0
sg5
I0
sg6
I51870
sg7
I00
sg8
I-10800
sg9
S'dick.westfahl@enron.com'
p83
sg11
I256191
sg12
I0
sg13
I0
sg14
I0
sg15
I0
sg16
I401130
sg17
I0
sg18
I0
sg19
I0
sg20
I384930
sg21
I0
sg22
I0
sg23
I384930
sg24
I63744
sg25
I762135
sg26
I0
sg27
I0
ssS'WALTERS GARETH W'
p84
(dp85
g3
I0
sg4
I53625
sg5
I0
sg6
I33785
sg7
I00
sg8
I0
sg9
g30
sg11
I0
sg12
I0
sg13
I0
sg14
I0
sg15
I0
sg16
I0
sg17
I0
sg18
I0
sg19
I0
sg20
I1030329
sg21
I0
sg22
I0
sg23
I0
sg24
I0
sg25
I87410
sg26
I1030329
sg27
I0
ssS'WALLS JR ROBERT H'
p86
(dp87
g3
I671
sg4
I0
sg5
F0.0
sg6
I50936
sg7
I00
sg8
I0
sg9
S'rob.walls@enron.com'
p88
sg11
I540751
sg12
I0
sg13
I215
sg14
I0
sg15
I146
sg16
I2
sg17
I0
sg18
I850000
sg19
F0.02533532041728763
sg20
I5898997
sg21
I17
sg22
I0
sg23
I1552453
sg24
I357091
sg25
I1798780
sg26
I4346544
sg27
I0
ssS'KITCHEN LOUISE'
p89
(dp90
g3
I8305
sg4
I0
sg5
F0.11226851851851852
sg6
I5774
sg7
I00
sg8
I0
sg9
S'louise.kitchen@enron.com'
p91
sg11
I0
sg12
I0
sg13
I3669
sg14
I0
sg15
I1728
sg16
I93925
sg17
I0
sg18
I3100000
sg19
F0.030222757375075255
sg20
I547143
sg21
I251
sg22
I194
sg23
I466101
sg24
I271442
sg25
I3471141
sg26
I81042
sg27
I0
ssS'CHAN RONNIE'
p92
(dp93
g3
I0
sg4
I0
sg5
I0
sg6
I0
sg7
I00
sg8
I-98784
sg9
g30
sg11
I0
sg12
I-32460
sg13
I0
sg14
I0
sg15
I0
sg16
I0
sg17
I98784
sg18
I0
sg19
I0
sg20
I0
sg21
I0
sg22
I0
sg23
I32460
sg24
I0
sg25
I0
sg26
I0
sg27
I0
ssS'BELFER ROBERT'
p94
(dp95
g3
I0
sg4
I-102500
sg5
I0
sg6
I0
sg7
I00
sg8
I0
sg9
g30
sg11
I0
sg12
I44093
sg13
I0
sg14
I0
sg15
I0
sg16
I0
sg17
I3285
sg18
I0
sg19
I0
sg20
I-44093
sg21
I0
sg22
I0
sg23
I0
sg24
I0
sg25
I102500
sg26
I3285
sg27
I0
ssS'SHANKMAN JEFFREY A'
p96
(dp97
g3
I3221
sg4
I0
sg5
F0.030958597538232
sg6
I178979
sg7
I00
sg8
I0
sg9
S'jeffrey.shankman@enron.com'
p98
sg11
I554422
sg12
I0
sg13
I1730
sg14
I0
sg15
I2681
sg16
I1191
sg17
I0
sg18
I2000000
sg19
F0.029183483390251473
sg20
I2072035
sg21
I94
sg22
I83
sg23
I630137
sg24
I304110
sg25
I3038702
sg26
I1441898
sg27
I0
ssS'WODRASKA JOHN'
p99
(dp100
g3
I0
sg4
I0
sg5
I0
sg6
I0
sg7
I00
sg8
I0
sg9
S'john.wodraska@enron.com'
p101
sg11
I0
sg12
I0
sg13
I0
sg14
I0
sg15
I0
sg16
I189583
sg17
I0
sg18
I0
sg19
I0
sg20
I0
sg21
I0
sg22
I0
sg23
I0
sg24
I0
sg25
I189583
sg26
I0
sg27
I0
ssS'BERGSIEKER RICHARD P'
p102
(dp103
g3
I383
sg4
I0
sg5
F0.0
sg6
I59175
sg7
I00
sg8
I-485813
sg9
S'rick.bergsieker@enron.com'
p104
sg11
I180250
sg12
I0
sg13
I233
sg14
I0
sg15
I59
sg16
I427316
sg17
I0
sg18
I250000
sg19
F0.010443864229765013
sg20
I659249
sg21
I4
sg22
I0
sg23
I659249
sg24
I187922
sg25
I618850
sg26
I0
sg27
I0
ssS'URQUHART JOHN A'
p105
(dp106
g3
I0
sg4
I0
sg5
I0
sg6
I228656
sg7
I00
sg8
I-36666
sg9
g30
sg11
I0
sg12
I0
sg13
I0
sg14
I0
sg15
I0
sg16
I0
sg17
I36666
sg18
I0
sg19
I0
sg20
I0
sg21
I0
sg22
I0
sg23
I0
sg24
I0
sg25
I228656
sg26
I0
sg27
I0
ssS'BIBI PHILIPPE A'
p107
(dp108
g3
I1607
sg4
I0
sg5
F0.2
sg6
I38559
sg7
I00
sg8
I0
sg9
S'philippe.bibi@enron.com'
p109
sg11
I369721
sg12
I0
sg13
I1336
sg14
I0
sg15
I40
sg16
I425688
sg17
I0
sg18
I1000000
sg19
F0.01431238332296204
sg20
I1843816
sg21
I23
sg22
I8
sg23
I378082
sg24
I213625
sg25
I2047593
sg26
I1465734
sg27
I0
ssS'RIEKER PAULA H'
p110
(dp111
g3
I1328
sg4
I214678
sg5
F0.5853658536585366
sg6
I33271
sg7
I01
sg8
I-100000
sg9
S'paula.rieker@enron.com'
p112
sg11
I0
sg12
I0
sg13
I1258
sg14
I0
sg15
I82
sg16
I1950
sg17
I0
sg18
I700000
sg19
F0.02635542168674699
sg20
I1918887
sg21
I35
sg22
I48
sg23
I283649
sg24
I249201
sg25
I1099100
sg26
I1635238
sg27
I0
ssS'WHALEY DAVID A'
p113
(dp114
g3
I0
sg4
I0
sg5
I0
sg6
I0
sg7
I00
sg8
I0
sg9
g30
sg11
I0
sg12
I0
sg13
I0
sg14
I0
sg15
I0
sg16
I0
sg17
I0
sg18
I0
sg19
I0
sg20
I98718
sg21
I0
sg22
I0
sg23
I0
sg24
I0
sg25
I0
sg26
I98718
sg27
I0
ssS'BECK SALLY W'
p115
(dp116
g3
I7315
sg4
I0
sg5
F0.08887865530739121
sg6
I37172
sg7
I00
sg8
I0
sg9
S'sally.beck@enron.com'
p117
sg11
I0
sg12
I0
sg13
I2639
sg14
I0
sg15
I4343
sg16
I566
sg17
I0
sg18
I700000
sg19
F0.01968557758031442
sg20
I126027
sg21
I144
sg22
I386
sg23
I126027
sg24
I231330
sg25
I969068
sg26
I0
sg27
I0
ssS'HAUG DAVID L'
p118
(dp119
g3
I573
sg4
I0
sg5
F0.3684210526315789
sg6
I475
sg7
I00
sg8
I0
sg9
S'david.haug@enron.com'
p120
sg11
I0
sg12
I0
sg13
I471
sg14
I0
sg15
I19
sg16
I0
sg17
I0
sg18
I0
sg19
F0.006980802792321117
sg20
I2217299
sg21
I4
sg22
I7
sg23
I2217299
sg24
I0
sg25
I475
sg26
I0
sg27
I0
ssS'ECHOLS JOHN B'
p121
(dp122
g3
I0
sg4
I0
sg5
I0
sg6
I21530
sg7
I00
sg8
I0
sg9
S'john.echols@enron.com'
p123
sg11
I2234774
sg12
I0
sg13
I0
sg14
I0
sg15
I0
sg16
I53775
sg17
I0
sg18
I200000
sg19
I0
sg20
I1008941
sg21
I0
sg22
I0
sg23
I407503
sg24
I182245
sg25
I2692324
sg26
I601438
sg27
I0
ssS'MENDELSOHN JOHN'
p124
(dp125
g3
I0
sg4
I0
sg5
I0
sg6
I148
sg7
I00
sg8
I-103750
sg9
g30
sg11
I0
sg12
I0
sg13
I0
sg14
I0
sg15
I0
sg16
I0
sg17
I103750
sg18
I0
sg19
I0
sg20
I0
sg21
I0
sg22
I0
sg23
I0
sg24
I0
sg25
I148
sg26
I0
sg27
I0
ssS'HICKERSON GARY J'
p126
(dp127
g3
I1320
sg4
I0
sg5
F0.037037037037037035
sg6
I98849
sg7
I00
sg8
I0
sg9
S'gary.hickerson@enron.com'
p128
sg11
I69223
sg12
I0
sg13
I900
sg14
I0
sg15
I27
sg16
I1936
sg17
I0
sg18
I1700000
sg19
F0.030303030303030304
sg20
I441096
sg21
I40
sg22
I1
sg23
I441096
sg24
I211788
sg25
I2081796
sg26
I0
sg27
I0
ssS'CLINE KENNETH W'
p129
(dp130
g3
I0
sg4
I0
sg5
I0
sg6
I0
sg7
I00
sg8
I0
sg9
g30
sg11
I0
sg12
I-472568
sg13
I0
sg14
I0
sg15
I0
sg16
I0
sg17
I0
sg18
I0
sg19
I0
sg20
I189518
sg21
I0
sg22
I0
sg23
I662086
sg24
I0
sg25
I0
sg26
I0
sg27
I0
ssS'LEWIS RICHARD'
p131
(dp132
g3
I952
sg4
I0
sg5
F0.0
sg6
I0
sg7
I00
sg8
I0
sg9
S'richard.lewis@enron.com'
p133
sg11
I0
sg12
I0
sg13
I739
sg14
I0
sg15
I26
sg16
I0
sg17
I0
sg18
I0
sg19
F0.01050420168067227
sg20
I850477
sg21
I10
sg22
I0
sg23
I0
sg24
I0
sg25
I0
sg26
I850477
sg27
I0
ssS'HAYES ROBERT E'
p134
(dp135
g3
I504
sg4
I7961
sg5
F0.0
sg6
I0
sg7
I00
sg8
I0
sg9
S'robert.hayes@enron.com'
p136
sg11
I0
sg12
I0
sg13
I50
sg14
I0
sg15
I12
sg16
I0
sg17
I0
sg18
I0
sg19
F0.031746031746031744
sg20
I151418
sg21
I16
sg22
I0
sg23
I151418
sg24
I0
sg25
I7961
sg26
I0
sg27
I0
ssS'MCCARTY DANNY J'
p137
(dp138
g3
I1433
sg4
I0
sg5
F0.009302325581395349
sg6
I0
sg7
I00
sg8
I0
sg9
S'danny.mccarty@enron.com'
p139
sg11
I0
sg12
I0
sg13
I508
sg14
I0
sg15
I215
sg16
I0
sg17
I0
sg18
I0
sg19
F0.017445917655268667
sg20
I758931
sg21
I25
sg22
I2
sg23
I94556
sg24
I0
sg25
I0
sg26
I664375
sg27
I0
ssS'KOPPER MICHAEL J'
p140
(dp141
g3
I0
sg4
I0
sg5
I0
sg6
I118134
sg7
I01
sg8
I0
sg9
S'michael.kopper@enron.com'
p142
sg11
I602671
sg12
I0
sg13
I0
sg14
I0
sg15
I0
sg16
I907502
sg17
I0
sg18
I800000
sg19
I0
sg20
I985032
sg21
I0
sg22
I0
sg23
I985032
sg24
I224305
sg25
I2652612
sg26
I0
sg27
I0
ssS'LEFF DANIEL P'
p143
(dp144
g3
I2822
sg4
I0
sg5
F0.2222222222222222
sg6
I0
sg7
I00
sg8
I0
sg9
S'dan.leff@enron.com'
p145
sg11
I1387399
sg12
I0
sg13
I2672
sg14
I0
sg15
I63
sg16
I3083
sg17
I0
sg18
I1000000
sg19
F0.02374202693125443
sg20
I360528
sg21
I67
sg22
I14
sg23
I360528
sg24
I273746
sg25
I2664228
sg26
I0
sg27
I0
ssS'LAVORATO JOHN J'
p146
(dp147
g3
I7259
sg4
I0
sg5
F0.15899419729206962
sg6
I49537
sg7
I00
sg8
I0
sg9
S'john.lavorato@enron.com'
p148
sg11
I2035380
sg12
I0
sg13
I3962
sg14
I0
sg15
I2585
sg16
I1552
sg17
I0
sg18
I8000000
sg19
F0.07273729163796666
sg20
I5167144
sg21
I528
sg22
I411
sg23
I1008149
sg24
I339288
sg25
I10425757
sg26
I4158995
sg27
I0
ssS'BERBERIAN DAVID'
p149
(dp150
g3
I0
sg4
I0
sg5
I0
sg6
I11892
sg7
I00
sg8
I0
sg9
S'david.berberian@enron.com'
p151
sg11
I0
sg12
I0
sg13
I0
sg14
I0
sg15
I0
sg16
I0
sg17
I0
sg18
I0
sg19
I0
sg20
I2493616
sg21
I0
sg22
I0
sg23
I869220
sg24
I216582
sg25
I228474
sg26
I1624396
sg27
I0
ssS'DETMERING TIMOTHY J'
p152
(dp153
g3
I0
sg4
I875307
sg5
I0
sg6
I52255
sg7
I00
sg8
I-775241
sg9
S'timothy.detmering@enron.com'
p154
sg11
I415657
sg12
I-315068
sg13
I0
sg14
I0
sg15
I0
sg16
I1105
sg17
I0
sg18
I425000
sg19
I0
sg20
I2027865
sg21
I0
sg22
I0
sg23
I315068
sg24
I210500
sg25
I1204583
sg26
I2027865
sg27
I0
ssS'WAKEHAM JOHN'
p155
(dp156
g3
I0
sg4
I0
sg5
I0
sg6
I103773
sg7
I00
sg8
I0
sg9
g30
sg11
I0
sg12
I0
sg13
I0
sg14
I0
sg15
I0
sg16
I0
sg17
I109298
sg18
I0
sg19
I0
sg20
I0
sg21
I0
sg22
I0
sg23
I0
sg24
I0
sg25
I213071
sg26
I0
sg27
I0
ssS'POWERS WILLIAM'
p157
(dp158
g3
I653
sg4
I0
sg5
F0.0
sg6
I0
sg7
I00
sg8
I-17500
sg9
S'ken.powers@enron.com'
p159
sg11
I0
sg12
I0
sg13
I12
sg14
I0
sg15
I26
sg16
I0
sg17
I17500
sg18
I0
sg19
F0.0
sg20
I0
sg21
I0
sg22
I0
sg23
I0
sg24
I0
sg25
I0
sg26
I0
sg27
I0
ssS'GOLD JOSEPH'
p160
(dp161
g3
I0
sg4
I0
sg5
I0
sg6
I0
sg7
I00
sg8
I0
sg9
S'joe.gold@enron.com'
p162
sg11
I304805
sg12
I0
sg13
I0
sg14
I0
sg15
I0
sg16
I819288
sg17
I0
sg18
I750000
sg19
I0
sg20
I877611
sg21
I0
sg22
I0
sg23
I441096
sg24
I272880
sg25
I2146973
sg26
I436515
sg27
I0
ssS'BANNANTINE JAMES M'
p163
(dp164
g3
I566
sg4
I0
sg5
F0.0
sg6
I56301
sg7
I00
sg8
I-5104
sg9
S'james.bannantine@enron.com'
p165
sg11
I0
sg12
I-560222
sg13
I465
sg14
I0
sg15
I29
sg16
I864523
sg17
I0
sg18
I0
sg19
F0.06890459363957598
sg20
I5243487
sg21
I39
sg22
I0
sg23
I1757552
sg24
I477
sg25
I916197
sg26
I4046157
sg27
I0
ssS'DUNCAN JOHN H'
p166
(dp167
g3
I0
sg4
I0
sg5
I0
sg6
I0
sg7
I00
sg8
I-25000
sg9
g30
sg11
I0
sg12
I0
sg13
I0
sg14
I0
sg15
I0
sg16
I0
sg17
I102492
sg18
I0
sg19
I0
sg20
I371750
sg21
I0
sg22
I0
sg23
I0
sg24
I0
sg25
I77492
sg26
I371750
sg27
I0
ssS'SHAPIRO RICHARD S'
p168
(dp169
g3
I15149
sg4
I0
sg5
F0.053497942386831275
sg6
I137767
sg7
I00
sg8
I0
sg9
S'richard.shapiro@enron.com'
p170
sg11
I0
sg12
I0
sg13
I4527
sg14
I0
sg15
I1215
sg16
I705
sg17
I0
sg18
I650000
sg19
F0.0048848108786058485
sg20
I987001
sg21
I74
sg22
I65
sg23
I379164
sg24
I269076
sg25
I1057548
sg26
I607837
sg27
I0
ssS'SHERRIFF JOHN R'
p171
(dp172
g3
I3187
sg4
I0
sg5
F0.25
sg6
I0
sg7
I00
sg8
I0
sg9
S'john.sherriff@enron.com'
p173
sg11
I554422
sg12
I0
sg13
I2103
sg14
I0
sg15
I92
sg16
I1852186
sg17
I0
sg18
I1500000
sg19
F0.008785691873235017
sg20
I3128982
sg21
I28
sg22
I23
sg23
I1293424
sg24
I428780
sg25
I4335388
sg26
I1835558
sg27
I0
ssS'SHELBY REX'
p174
(dp175
g3
I225
sg4
I0
sg5
F0.358974358974359
sg6
I22884
sg7
I01
sg8
I-4167
sg9
S'rex.shelby@enron.com'
p176
sg11
I0
sg12
I0
sg13
I91
sg14
I0
sg15
I39
sg16
I1573324
sg17
I0
sg18
I200000
sg19
F0.057777777777777775
sg20
I2493616
sg21
I13
sg22
I14
sg23
I869220
sg24
I211844
sg25
I2003885
sg26
I1624396
sg27
I1
ssS'LEMAISTRE CHARLES'
p177
(dp178
g3
I0
sg4
I0
sg5
I0
sg6
I0
sg7
I00
sg8
I-25000
sg9
g30
sg11
I0
sg12
I0
sg13
I0
sg14
I0
sg15
I0
sg16
I0
sg17
I112492
sg18
I0
sg19
I0
sg20
I412878
sg21
I0
sg22
I0
sg23
I0
sg24
I0
sg25
I87492
sg26
I412878
sg27
I0
ssS'DEFFNER JOSEPH M'
p179
(dp180
g3
I714
sg4
I0
sg5
F0.05405405405405406
sg6
I41626
sg7
I00
sg8
I0
sg9
S'joseph.deffner@enron.com'
p181
sg11
I335349
sg12
I0
sg13
I552
sg14
I0
sg15
I74
sg16
I25553
sg17
I0
sg18
I600000
sg19
F0.16106442577030813
sg20
I159211
sg21
I115
sg22
I4
sg23
I141833
sg24
I206121
sg25
I1208649
sg26
I17378
sg27
I0
ssS'KISHKILL JOSEPH G'
p182
(dp183
g3
I0
sg4
I0
sg5
I0
sg6
I116335
sg7
I00
sg8
I-51042
sg9
S'joe.kishkill@enron.com'
p184
sg11
I0
sg12
I0
sg13
I0
sg14
I0
sg15
I0
sg16
I465357
sg17
I0
sg18
I0
sg19
I0
sg20
I1034346
sg21
I0
sg22
I0
sg23
I1034346
sg24
I174246
sg25
I704896
sg26
I0
sg27
I0
ssS'WHALLEY LAWRENCE G'
p185
(dp186
g3
I6019
sg4
I0
sg5
F0.04316546762589928
sg6
I57838
sg7
I00
sg8
I0
sg9
S'greg.whalley@enron.com'
p187
sg11
I808346
sg12
I0
sg13
I3920
sg14
I0
sg15
I556
sg16
I301026
sg17
I0
sg18
I3000000
sg19
F0.03090214321315833
sg20
I6079137
sg21
I186
sg22
I24
sg23
I2796177
sg24
I510364
sg25
I4677574
sg26
I3282960
sg27
I0
ssS'MCCONNELL MICHAEL S'
p188
(dp189
g3
I3329
sg4
I0
sg5
F0.07075127644055434
sg6
I81364
sg7
I00
sg8
I0
sg9
S'mike.mcconnell@enron.com'
p190
sg11
I554422
sg12
I0
sg13
I2189
sg14
I0
sg15
I2742
sg16
I540
sg17
I0
sg18
I1100000
sg19
F0.02763592670471613
sg20
I3101279
sg21
I92
sg22
I194
sg23
I1478269
sg24
I365038
sg25
I2101364
sg26
I1623010
sg27
I0
ssS'PIRO JIM'
p191
(dp192
g3
I58
sg4
I0
sg5
F0.0625
sg6
I0
sg7
I00
sg8
I0
sg9
S'jim.piro@enron.com'
p193
sg11
I0
sg12
I0
sg13
I3
sg14
I0
sg15
I16
sg16
I0
sg17
I0
sg18
I0
sg19
F0.0
sg20
I47304
sg21
I0
sg22
I1
sg23
I47304
sg24
I0
sg25
I0
sg26
I0
sg27
I0
ssS'DELAINEY DAVID W'
p194
(dp195
g3
I3093
sg4
I0
sg5
F0.198435972629521
sg6
I86174
sg7
I01
sg8
I0
sg9
S'david.delainey@enron.com'
p196
sg11
I1294981
sg12
I0
sg13
I2097
sg14
I0
sg15
I3069
sg16
I1661
sg17
I0
sg18
I3000000
sg19
F0.02133850630455868
sg20
I3614261
sg21
I66
sg22
I609
sg23
I1323148
sg24
I365163
sg25
I4747979
sg26
I2291113
sg27
I0
ssS'SULLIVAN-SHAKLOVITZ COLLEEN'
p197
(dp198
g3
I0
sg4
I181993
sg5
I0
sg6
I0
sg7
I00
sg8
I0
sg9
g30
sg11
I554422
sg12
I0
sg13
I0
sg14
I0
sg15
I0
sg16
I162
sg17
I0
sg18
I100000
sg19
I0
sg20
I1362375
sg21
I0
sg22
I0
sg23
I0
sg24
I162779
sg25
I999356
sg26
I1362375
sg27
I1
ssS'WROBEL BRUCE'
p199
(dp200
g3
I0
sg4
I0
sg5
I0
sg6
I0
sg7
I00
sg8
I0
sg9
g30
sg11
I0
sg12
I0
sg13
I0
sg14
I0
sg15
I0
sg16
I0
sg17
I0
sg18
I0
sg19
I0
sg20
I139130
sg21
I0
sg22
I0
sg23
I0
sg24
I0
sg25
I0
sg26
I139130
sg27
I0
ssS'LINDHOLM TOD A'
p201
(dp202
g3
I0
sg4
I204075
sg5
I0
sg6
I57727
sg7
I00
sg8
I0
sg9
S'tod.lindholm@enron.com'
p203
sg11
I175000
sg12
I0
sg13
I0
sg14
I0
sg15
I0
sg16
I2630
sg17
I0
sg18
I200000
sg19
I0
sg20
I3064208
sg21
I0
sg22
I0
sg23
I514847
sg24
I236457
sg25
I875889
sg26
I2549361
sg27
I1
ssS'MEYER JEROME J'
p204
(dp205
g3
I0
sg4
I0
sg5
I0
sg6
I2151
sg7
I00
sg8
I-38346
sg9
g30
sg11
I0
sg12
I0
sg13
I0
sg14
I0
sg15
I0
sg16
I0
sg17
I38346
sg18
I0
sg19
I0
sg20
I0
sg21
I0
sg22
I0
sg23
I0
sg24
I0
sg25
I2151
sg26
I0
sg27
I0
ssS'LAY KENNETH L'
p206
(dp207
g3
I4273
sg4
I202911
sg5
F0.4444444444444444
sg6
I99832
sg7
I01
sg8
I-300000
sg9
S'kenneth.lay@enron.com'
p208
sg11
I3600000
sg12
I0
sg13
I2411
sg14
I81525000
sg15
I36
sg16
I10359729
sg17
I0
sg18
I7000000
sg19
F0.028785396676807865
sg20
I49110078
sg21
I123
sg22
I16
sg23
I14761694
sg24
I1072321
sg25
I103559793
sg26
I34348384
sg27
I0
ssS'BUTTS ROBERT H'
p209
(dp210
g3
I0
sg4
I0
sg5
I0
sg6
I9410
sg7
I00
sg8
I-75000
sg9
S'bob.butts@enron.com'
p211
sg11
I175000
sg12
I0
sg13
I0
sg14
I0
sg15
I0
sg16
I150656
sg17
I0
sg18
I750000
sg19
I0
sg20
I417619
sg21
I0
sg22
I0
sg23
I417619
sg24
I261516
sg25
I1271582
sg26
I0
sg27
I0
ssS'OLSON CINDY K'
p212
(dp213
g3
I1184
sg4
I77716
sg5
F0.28846153846153844
sg6
I63791
sg7
I00
sg8
I0
sg9
S'cindy.olson@enron.com'
p214
sg11
I100000
sg12
I0
sg13
I856
sg14
I0
sg15
I52
sg16
I972
sg17
I0
sg18
I750000
sg19
F0.016891891891891893
sg20
I2606763
sg21
I20
sg22
I15
sg23
I969729
sg24
I329078
sg25
I1321557
sg26
I1637034
sg27
I0
ssS'MCDONALD REBECCA'
p215
(dp216
g3
I894
sg4
I0
sg5
F0.07692307692307693
sg6
I0
sg7
I00
sg8
I0
sg9
S'rebecca.mcdonald@enron.com'
p217
sg11
I0
sg12
I0
sg13
I720
sg14
I0
sg15
I13
sg16
I0
sg17
I0
sg18
I0
sg19
F0.06040268456375839
sg20
I1691366
sg21
I54
sg22
I1
sg23
I934065
sg24
I0
sg25
I0
sg26
I757301
sg27
I0
ssS'CUMBERLAND MICHAEL S'
p218
(dp219
g3
I0
sg4
I0
sg5
I0
sg6
I22344
sg7
I00
sg8
I0
sg9
g30
sg11
I275000
sg12
I0
sg13
I0
sg14
I0
sg15
I0
sg16
I713
sg17
I0
sg18
I325000
sg19
I0
sg20
I207940
sg21
I0
sg22
I0
sg23
I207940
sg24
I184899
sg25
I807956
sg26
I0
sg27
I0
ssS'GAHN ROBERT S'
p220
(dp221
g3
I0
sg4
I73122
sg5
I0
sg6
I50080
sg7
I00
sg8
I-1042
sg9
g30
sg11
I0
sg12
I0
sg13
I0
sg14
I0
sg15
I0
sg16
I76547
sg17
I0
sg18
I509870
sg19
I0
sg20
I318607
sg21
I0
sg22
I0
sg23
I235370
sg24
I192008
sg25
I900585
sg26
I83237
sg27
I0
ssS'MCCLELLAN GEORGE'
p222
(dp223
g3
I1744
sg4
I0
sg5
F0.0
sg6
I228763
sg7
I00
sg8
I-125000
sg9
S'george.mcclellan@enron.com'
p224
sg11
I0
sg12
I0
sg13
I1469
sg14
I0
sg15
I49
sg16
I51587
sg17
I0
sg18
I900000
sg19
F0.02981651376146789
sg20
I947861
sg21
I52
sg22
I0
sg23
I441096
sg24
I263413
sg25
I1318763
sg26
I506765
sg27
I0
ssS'HERMANN ROBERT J'
p225
(dp226
g3
I0
sg4
I0
sg5
I0
sg6
I48357
sg7
I00
sg8
I-280000
sg9
S'robert.hermann@enron.com'
p227
sg11
I150000
sg12
I0
sg13
I0
sg14
I0
sg15
I0
sg16
I416441
sg17
I0
sg18
I700000
sg19
I0
sg20
I668132
sg21
I0
sg22
I0
sg23
I480632
sg24
I262663
sg25
I1297461
sg26
I187500
sg27
I0
ssS'SCRIMSHAW MATTHEW'
p228
(dp229
g3
I0
sg4
I0
sg5
I0
sg6
I0
sg7
I00
sg8
I0
sg9
S'matthew.scrimshaw@enron.com'
p230
sg11
I0
sg12
I0
sg13
I0
sg14
I0
sg15
I0
sg16
I0
sg17
I0
sg18
I0
sg19
I0
sg20
I759557
sg21
I0
sg22
I0
sg23
I0
sg24
I0
sg25
I0
sg26
I759557
sg27
I0
ssS'GATHMANN WILLIAM D'
p231
(dp232
g3
I0
sg4
I0
sg5
I0
sg6
I0
sg7
I00
sg8
I0
sg9
g30
sg11
I0
sg12
I-72419
sg13
I0
sg14
I0
sg15
I0
sg16
I0
sg17
I0
sg18
I0
sg19
I0
sg20
I1945360
sg21
I0
sg22
I0
sg23
I264013
sg24
I0
sg25
I0
sg26
I1753766
sg27
I0
ssS'HAEDICKE MARK E'
p233
(dp234
g3
I4009
sg4
I2157527
sg5
F0.03142709943328181
sg6
I76169
sg7
I00
sg8
I-934484
sg9
S'mark.haedicke@enron.com'
p235
sg11
I983346
sg12
I-329825
sg13
I1847
sg14
I0
sg15
I1941
sg16
I52382
sg17
I0
sg18
I1150000
sg19
F0.04489897730107259
sg20
I803094
sg21
I180
sg22
I61
sg23
I524169
sg24
I374125
sg25
I3859065
sg26
I608750
sg27
I0
ssS'BOWEN JR RAYMOND M'
p236
(dp237
g3
I1858
sg4
I0
sg5
F0.5555555555555556
sg6
I65907
sg7
I01
sg8
I-833
sg9
S'raymond.bowen@enron.com'
p238
sg11
I974293
sg12
I0
sg13
I1593
sg14
I0
sg15
I27
sg16
I1621
sg17
I0
sg18
I1350000
sg19
F0.07534983853606028
sg20
I252055
sg21
I140
sg22
I15
sg23
I252055
sg24
I278601
sg25
I2669589
sg26
I0
sg27
I0
ssS'GILLIS JOHN'
p239
(dp240
g3
I0
sg4
I0
sg5
I0
sg6
I0
sg7
I00
sg8
I0
sg9
g30
sg11
I0
sg12
I0
sg13
I0
sg14
I0
sg15
I0
sg16
I0
sg17
I0
sg18
I0
sg19
I0
sg20
I85641
sg21
I0
sg22
I0
sg23
I75838
sg24
I0
sg25
I0
sg26
I9803
sg27
I0
ssS'FITZGERALD JAY L'
p241
(dp242
g3
I936
sg4
I0
sg5
F0.5
sg6
I23870
sg7
I00
sg8
I0
sg9
S'jay.fitzgerald@enron.com'
p243
sg11
I556416
sg12
I0
sg13
I723
sg14
I0
sg15
I16
sg16
I285414
sg17
I0
sg18
I350000
sg19
F0.0010683760683760685
sg20
I1621236
sg21
I1
sg22
I8
sg23
I956775
sg24
I199157
sg25
I1414857
sg26
I664461
sg27
I0
ssS'MORAN MICHAEL P'
p244
(dp245
g3
I672
sg4
I0
sg5
F0.0
sg6
I0
sg7
I00
sg8
I0
sg9
S'michael.moran@enron.com'
p246
sg11
I0
sg12
I0
sg13
I127
sg14
I0
sg15
I19
sg16
I0
sg17
I0
sg18
I0
sg19
F0.0
sg20
I221141
sg21
I0
sg22
I0
sg23
I161602
sg24
I0
sg25
I0
sg26
I59539
sg27
I0
ssS'REDMOND BRIAN L'
p247
(dp248
g3
I1671
sg4
I0
sg5
F0.22171945701357465
sg6
I14689
sg7
I00
sg8
I0
sg9
S'brian.redmond@enron.com'
p249
sg11
I0
sg12
I0
sg13
I1063
sg14
I0
sg15
I221
sg16
I0
sg17
I0
sg18
I0
sg19
F0.12208258527827648
sg20
I7890324
sg21
I204
sg22
I49
sg23
I381285
sg24
I96840
sg25
I111529
sg26
I7509039
sg27
I0
ssS'BAZELIDES PHILIP J'
p250
(dp251
g3
I0
sg4
I684694
sg5
I0
sg6
I0
sg7
I00
sg8
I0
sg9
g30
sg11
I93750
sg12
I0
sg13
I0
sg14
I0
sg15
I0
sg16
I874
sg17
I0
sg18
I0
sg19
I0
sg20
I1599641
sg21
I0
sg22
I0
sg23
I0
sg24
I80818
sg25
I860136
sg26
I1599641
sg27
I0
ssS'BELDEN TIMOTHY N'
p252
(dp253
g3
I7991
sg4
I2144013
sg5
F0.2231404958677686
sg6
I17355
sg7
I01
sg8
I-2334434
sg9
S'tim.belden@enron.com'
p254
sg11
I0
sg12
I0
sg13
I5521
sg14
I0
sg15
I484
sg16
I210698
sg17
I0
sg18
I5249999
sg19
F0.028532098610937303
sg20
I1110705
sg21
I228
sg22
I108
sg23
I157569
sg24
I213999
sg25
I5501630
sg26
I953136
sg27
I0
ssS'DURAN WILLIAM D'
p255
(dp256
g3
I904
sg4
I0
sg5
F0.25
sg6
I25785
sg7
I00
sg8
I0
sg9
S'w.duran@enron.com'
p257
sg11
I1105218
sg12
I0
sg13
I599
sg14
I0
sg15
I12
sg16
I1568
sg17
I0
sg18
I750000
sg19
F0.1172566371681416
sg20
I1640910
sg21
I106
sg22
I3
sg23
I189041
sg24
I210692
sg25
I2093263
sg26
I1451869
sg27
I0
ssS'THORN TERENCE H'
p258
(dp259
g3
I266
sg4
I16586
sg5
F0.0
sg6
I46145
sg7
I00
sg8
I0
sg9
S'terence.thorn@enron.com'
p260
sg11
I200000
sg12
I0
sg13
I73
sg14
I0
sg15
I41
sg16
I426629
sg17
I0
sg18
I0
sg19
F0.0
sg20
I4817796
sg21
I0
sg22
I0
sg23
I365320
sg24
I222093
sg25
I911453
sg26
I4452476
sg27
I0
ssS'FASTOW ANDREW S'
p261
(dp262
g3
I0
sg4
I0
sg5
I0
sg6
I55921
sg7
I01
sg8
I-1386055
sg9
S'andrew.fastow@enron.com'
p263
sg11
I1736055
sg12
I0
sg13
I0
sg14
I0
sg15
I0
sg16
I277464
sg17
I0
sg18
I1300000
sg19
I0
sg20
I1794412
sg21
I0
sg22
I0
sg23
I1794412
sg24
I440698
sg25
I2424083
sg26
I0
sg27
I0
ssS'FOY JOE'
p264
(dp265
g3
I57
sg4
I181755
sg5
F0.0
sg6
I0
sg7
I00
sg8
I0
sg9
S'tracy.foy@enron.com'
p266
sg11
I0
sg12
I0
sg13
I2
sg14
I0
sg15
I13
sg16
I0
sg17
I0
sg18
I0
sg19
F0.0
sg20
I343434
sg21
I0
sg22
I0
sg23
I0
sg24
I0
sg25
I181755
sg26
I343434
sg27
I0
ssS'CALGER CHRISTOPHER F'
p267
(dp268
g3
I2598
sg4
I0
sg5
F0.1736111111111111
sg6
I35818
sg7
I01
sg8
I-262500
sg9
S'christopher.calger@enron.com'
p269
sg11
I375304
sg12
I0
sg13
I2188
sg14
I0
sg15
I144
sg16
I486
sg17
I0
sg18
I1250000
sg19
F0.07659738260200154
sg20
I126027
sg21
I199
sg22
I25
sg23
I126027
sg24
I240189
sg25
I1639297
sg26
I0
sg27
I0
ssS'RICE KENNETH D'
p270
(dp271
g3
I905
sg4
I0
sg5
F0.2222222222222222
sg6
I46950
sg7
I01
sg8
I-3504386
sg9
S'ken.rice@enron.com'
p272
sg11
I1617011
sg12
I0
sg13
I864
sg14
I0
sg15
I18
sg16
I174839
sg17
I0
sg18
I1750000
sg19
F0.04640883977900553
sg20
I22542539
sg21
I42
sg22
I4
sg23
I2748364
sg24
I420636
sg25
I505050
sg26
I19794175
sg27
I0
ssS'KAMINSKI WINCENTY J'
p273
(dp274
g3
I4607
sg4
I0
sg5
F0.011901447661469933
sg6
I83585
sg7
I00
sg8
I0
sg9
S'vince.kaminski@enron.com'
p275
sg11
I323466
sg12
I0
sg13
I583
sg14
I0
sg15
I14368
sg16
I4669
sg17
I0
sg18
I400000
sg19
F0.008899500759713479
sg20
I976037
sg21
I41
sg22
I171
sg23
I126027
sg24
I275101
sg25
I1086821
sg26
I850010
sg27
I0
ssS'LOCKHART EUGENE E'
p276
(dp277
g3
I0
sg4
I0
sg5
I0
sg6
I0
sg7
I00
sg8
I0
sg9
g30
sg11
I0
sg12
I0
sg13
I0
sg14
I0
sg15
I0
sg16
I0
sg17
I0
sg18
I0
sg19
I0
sg20
I0
sg21
I0
sg22
I0
sg23
I0
sg24
I0
sg25
I0
sg26
I0
sg27
I0
ssS'COX DAVID'
p278
(dp279
g3
I102
sg4
I0
sg5
F0.12121212121212122
sg6
I27861
sg7
I00
sg8
I-41250
sg9
S'chip.cox@enron.com'
p280
sg11
I0
sg12
I0
sg13
I71
sg14
I0
sg15
I33
sg16
I494
sg17
I0
sg18
I800000
sg19
F0.0
sg20
I495633
sg21
I0
sg22
I4
sg23
I378082
sg24
I314288
sg25
I1101393
sg26
I117551
sg27
I0
ssS'OVERDYKE JR JERE C'
p281
(dp282
g3
I0
sg4
I0
sg5
I0
sg6
I18834
sg7
I00
sg8
I0
sg9
S'jere.overdyke@enron.com'
p283
sg11
I135836
sg12
I0
sg13
I0
sg14
I0
sg15
I0
sg16
I176
sg17
I0
sg18
I0
sg19
I0
sg20
I7307594
sg21
I0
sg22
I0
sg23
I2041016
sg24
I94941
sg25
I249787
sg26
I5266578
sg27
I0
ssS'PEREIRA PAULO V. FERRAZ'
p284
(dp285
g3
I0
sg4
I0
sg5
I0
sg6
I27942
sg7
I00
sg8
I-101250
sg9
g30
sg11
I0
sg12
I0
sg13
I0
sg14
I0
sg15
I0
sg16
I0
sg17
I101250
sg18
I0
sg19
I0
sg20
I0
sg21
I0
sg22
I0
sg23
I0
sg24
I0
sg25
I27942
sg26
I0
sg27
I0
ssS'STABLER FRANK'
p286
(dp287
g3
I0
sg4
I0
sg5
I0
sg6
I16514
sg7
I00
sg8
I0
sg9
S'frank.stabler@enron.com'
p288
sg11
I0
sg12
I0
sg13
I0
sg14
I0
sg15
I0
sg16
I356071
sg17
I0
sg18
I500000
sg19
I0
sg20
I511734
sg21
I0
sg22
I0
sg23
I511734
sg24
I239502
sg25
I1112087
sg26
I0
sg27
I0
ssS'SKILLING JEFFREY K'
p289
(dp290
g3
I3627
sg4
I0
sg5
F0.2777777777777778
sg6
I29336
sg7
I01
sg8
I0
sg9
S'jeff.skilling@enron.com'
p291
sg11
I1920000
sg12
I0
sg13
I2042
sg14
I0
sg15
I108
sg16
I22122
sg17
I0
sg18
I5600000
sg19
F0.0242624758753791
sg20
I26093672
sg21
I88
sg22
I30
sg23
I6843672
sg24
I1111258
sg25
I8682716
sg26
I19250000
sg27
I0
ssS'BLAKE JR. NORMAN P'
p292
(dp293
g3
I0
sg4
I0
sg5
I0
sg6
I1279
sg7
I00
sg8
I-113784
sg9
g30
sg11
I0
sg12
I0
sg13
I0
sg14
I0
sg15
I0
sg16
I0
sg17
I113784
sg18
I0
sg19
I0
sg20
I0
sg21
I0
sg22
I0
sg23
I0
sg24
I0
sg25
I1279
sg26
I0
sg27
I0
ssS'SHERRICK JEFFREY B'
p294
(dp295
g3
I613
sg4
I0
sg5
F0.72
sg6
I0
sg7
I00
sg8
I0
sg9
S'jeffrey.sherrick@enron.com'
p296
sg11
I0
sg12
I0
sg13
I583
sg14
I0
sg15
I25
sg16
I0
sg17
I0
sg18
I0
sg19
F0.0636215334420881
sg20
I1832468
sg21
I39
sg22
I18
sg23
I405999
sg24
I0
sg25
I0
sg26
I1426469
sg27
I0
ssS'PRENTICE JAMES'
p297
(dp298
g3
I0
sg4
I564348
sg5
I0
sg6
I0
sg7
I00
sg8
I0
sg9
S'james.prentice@enron.com'
p299
sg11
I0
sg12
I0
sg13
I0
sg14
I0
sg15
I0
sg16
I0
sg17
I0
sg18
I0
sg19
I0
sg20
I1095040
sg21
I0
sg22
I0
sg23
I208809
sg24
I0
sg25
I564348
sg26
I886231
sg27
I0
ssS'GRAY RODNEY'
p300
(dp301
g3
I0
sg4
I93585
sg5
I0
sg6
I0
sg7
I00
sg8
I0
sg9
g30
sg11
I365625
sg12
I0
sg13
I0
sg14
I0
sg15
I0
sg16
I680833
sg17
I0
sg18
I0
sg19
I0
sg20
I0
sg21
I0
sg22
I0
sg23
I0
sg24
I6615
sg25
I1146658
sg26
I0
sg27
I0
ssS'PICKERING MARK R'
p302
(dp303
g3
I898
sg4
I0
sg5
F0.0
sg6
I31653
sg7
I00
sg8
I0
sg9
S'mark.pickering@enron.com'
p304
sg11
I0
sg12
I0
sg13
I728
sg14
I400000
sg15
I67
sg16
I0
sg17
I0
sg18
I300000
sg19
F0.0077951002227171495
sg20
I28798
sg21
I7
sg22
I0
sg23
I0
sg24
I655037
sg25
I1386690
sg26
I28798
sg27
I2
ssS'NOLES JAMES L'
p305
(dp306
g3
I0
sg4
I774401
sg5
I0
sg6
I0
sg7
I00
sg8
I0
sg9
g30
sg11
I0
sg12
I-94556
sg13
I0
sg14
I0
sg15
I0
sg16
I0
sg17
I0
sg18
I0
sg19
I0
sg20
I368705
sg21
I0
sg22
I0
sg23
I463261
sg24
I0
sg25
I774401
sg26
I0
sg27
I0
ssS'KEAN STEVEN J'
p307
(dp308
g3
I12754
sg4
I0
sg5
F0.05725699067909454
sg6
I41953
sg7
I00
sg8
I0
sg9
S'steven.kean@enron.com'
p309
sg11
I300000
sg12
I0
sg13
I3639
sg14
I0
sg15
I6759
sg16
I1231
sg17
I0
sg18
I1000000
sg19
F0.010976948408342482
sg20
I6153642
sg21
I140
sg22
I387
sg23
I4131594
sg24
I404338
sg25
I1747522
sg26
I2022048
sg27
I0
ssS'FOWLER PEGGY'
p310
(dp311
g3
I517
sg4
I0
sg5
F0.0
sg6
I0
sg7
I00
sg8
I0
sg9
S'kulvinder.fowler@enron.com'
p312
sg11
I0
sg12
I0
sg13
I10
sg14
I0
sg15
I36
sg16
I0
sg17
I0
sg18
I0
sg19
F0.0
sg20
I1884748
sg21
I0
sg22
I0
sg23
I560170
sg24
I0
sg25
I0
sg26
I1324578
sg27
I0
ssS'WASAFF GEORGE'
p313
(dp314
g3
I400
sg4
I831299
sg5
F0.23333333333333334
sg6
I0
sg7
I00
sg8
I-583325
sg9
S'george.wasaff@enron.com'
p315
sg11
I200000
sg12
I0
sg13
I337
sg14
I0
sg15
I30
sg16
I1425
sg17
I0
sg18
I325000
sg19
F0.055
sg20
I2056427
sg21
I22
sg22
I7
sg23
I388167
sg24
I259996
sg25
I1034395
sg26
I1668260
sg27
I0
ssS'WHITE JR THOMAS E'
p316
(dp317
g3
I0
sg4
I0
sg5
I0
sg6
I81353
sg7
I00
sg8
I0
sg9
S'thomas.white@enron.com'
p318
sg11
I0
sg12
I0
sg13
I0
sg14
I0
sg15
I0
sg16
I1085463
sg17
I0
sg18
I450000
sg19
I0
sg20
I15144123
sg21
I0
sg22
I0
sg23
I13847074
sg24
I317543
sg25
I1934359
sg26
I1297049
sg27
I0
ssS'CHRISTODOULOU DIOMEDES'
p319
(dp320
g3
I0
sg4
I0
sg5
I0
sg6
I0
sg7
I00
sg8
I0
sg9
S'diomedes.christodoulou@enron.com'
p321
sg11
I0
sg12
I0
sg13
I0
sg14
I0
sg15
I0
sg16
I0
sg17
I0
sg18
I0
sg19
I0
sg20
I6077885
sg21
I0
sg22
I0
sg23
I950730
sg24
I0
sg25
I0
sg26
I5127155
sg27
I0
ssS'ALLEN PHILLIP K'
p322
(dp323
g3
I2902
sg4
I2869717
sg5
F0.029612756264236904
sg6
I13868
sg7
I00
sg8
I-3081055
sg9
S'phillip.allen@enron.com'
p324
sg11
I304805
sg12
I-126027
sg13
I1407
sg14
I0
sg15
I2195
sg16
I152
sg17
I0
sg18
I4175000
sg19
F0.016195727084769126
sg20
I1729541
sg21
I47
sg22
I65
sg23
I126027
sg24
I201955
sg25
I4484442
sg26
I1729541
sg27
I0
ssS'SHARP VICTORIA T'
p325
(dp326
g3
I3136
sg4
I187469
sg5
F0.04411764705882353
sg6
I116337
sg7
I00
sg8
I0
sg9
S'vicki.sharp@enron.com'
p327
sg11
I422158
sg12
I0
sg13
I2477
sg14
I0
sg15
I136
sg16
I2401
sg17
I0
sg18
I600000
sg19
F0.007653061224489796
sg20
I494136
sg21
I24
sg22
I6
sg23
I213063
sg24
I248146
sg25
I1576511
sg26
I281073
sg27
I0
ssS'JAEDICKE ROBERT'
p328
(dp329
g3
I0
sg4
I0
sg5
I0
sg6
I0
sg7
I00
sg8
I-25000
sg9
g30
sg11
I0
sg12
I-44093
sg13
I0
sg14
I0
sg15
I0
sg16
I0
sg17
I108750
sg18
I0
sg19
I0
sg20
I431750
sg21
I0
sg22
I0
sg23
I44093
sg24
I0
sg25
I83750
sg26
I431750
sg27
I0
ssS'WINOKUR JR. HERBERT S'
p330
(dp331
g3
I0
sg4
I0
sg5
I0
sg6
I1413
sg7
I00
sg8
I-25000
sg9
g30
sg11
I0
sg12
I0
sg13
I0
sg14
I0
sg15
I0
sg16
I0
sg17
I108579
sg18
I0
sg19
I0
sg20
I0
sg21
I0
sg22
I0
sg23
I0
sg24
I0
sg25
I84992
sg26
I0
sg27
I0
ssS'BROWN MICHAEL'
p332
(dp333
g3
I1486
sg4
I0
sg5
F0.024390243902439025
sg6
I49288
sg7
I00
sg8
I0
sg9
S'michael.brown@enron.com'
p334
sg11
I0
sg12
I0
sg13
I761
sg14
I0
sg15
I41
sg16
I0
sg17
I0
sg18
I0
sg19
F0.008748317631224764
sg20
I0
sg21
I13
sg22
I1
sg23
I0
sg24
I0
sg25
I49288
sg26
I0
sg27
I0
ssS'BADUM JAMES P'
p335
(dp336
g3
I0
sg4
I178980
sg5
I0
sg6
I3486
sg7
I00
sg8
I0
sg9
g30
sg11
I0
sg12
I0
sg13
I0
sg14
I0
sg15
I0
sg16
I0
sg17
I0
sg18
I0
sg19
I0
sg20
I257817
sg21
I0
sg22
I0
sg23
I0
sg24
I0
sg25
I182466
sg26
I257817
sg27
I0
ssS'HUGHES JAMES A'
p337
(dp338
g3
I719
sg4
I0
sg5
F0.14705882352941177
sg6
I0
sg7
I00
sg8
I0
sg9
S'james.hughes@enron.com'
p339
sg11
I0
sg12
I0
sg13
I589
sg14
I0
sg15
I34
sg16
I0
sg17
I0
sg18
I0
sg19
F0.048678720445062586
sg20
I1118394
sg21
I35
sg22
I5
sg23
I363428
sg24
I0
sg25
I0
sg26
I754966
sg27
I0
ssS'REYNOLDS LAWRENCE'
p340
(dp341
g3
I0
sg4
I51365
sg5
I0
sg6
I8409
sg7
I00
sg8
I-200000
sg9
g30
sg11
I156250
sg12
I-140264
sg13
I0
sg14
I0
sg15
I0
sg16
I202052
sg17
I0
sg18
I100000
sg19
I0
sg20
I4221891
sg21
I0
sg22
I0
sg23
I201483
sg24
I76399
sg25
I394475
sg26
I4160672
sg27
I0
ssS'DIMICHELE RICHARD G'
p342
(dp343
g3
I0
sg4
I0
sg5
I0
sg6
I35812
sg7
I00
sg8
I0
sg9
S'richard.dimichele@enron.com'
p344
sg11
I694862
sg12
I0
sg13
I0
sg14
I0
sg15
I0
sg16
I374689
sg17
I0
sg18
I1000000
sg19
I0
sg20
I8317782
sg21
I0
sg22
I0
sg23
I126027
sg24
I262788
sg25
I2368151
sg26
I8191755
sg27
I0
ssS'BHATNAGAR SANJAY'
p345
(dp346
g3
I523
sg4
I0
sg5
F0.034482758620689655
sg6
I0
sg7
I00
sg8
I0
sg9
S'sanjay.bhatnagar@enron.com'
p347
sg11
I0
sg12
I15456290
sg13
I463
sg14
I0
sg15
I29
sg16
I137864
sg17
I137864
sg18
I0
sg19
F0.0
sS'total_stock_value'
p348
I0
sg21
I0
sg22
I1
sg23
I-2604490
sg24
I0
sg25
I15456290
sg26
I2604490
sg27
I0
ssS'CARTER REBECCA C'
p349
(dp350
g3
I312
sg4
I0
sg5
F0.4666666666666667
sg6
I0
sg7
I00
sg8
I-159792
sg9
S'rebecca.carter@enron.com'
p351
sg11
I75000
sg12
I-307301
sg13
I196
sg14
I0
sg15
I15
sg16
I540
sg17
I0
sg18
I300000
sg19
F0.09294871794871795
sg20
I0
sg21
I29
sg22
I7
sg23
I307301
sg24
I261809
sg25
I477557
sg26
I0
sg27
I0
ssS'BUCHANAN HAROLD G'
p352
(dp353
g3
I1088
sg4
I0
sg5
F0.0
sg6
I600
sg7
I00
sg8
I0
sg9
S'john.buchanan@enron.com'
p354
sg11
I304805
sg12
I0
sg13
I23
sg14
I0
sg15
I125
sg16
I1215
sg17
I0
sg18
I500000
sg19
F0.0
sg20
I1014505
sg21
I0
sg22
I0
sg23
I189041
sg24
I248017
sg25
I1054637
sg26
I825464
sg27
I0
ssS'YEAP SOON'
p355
(dp356
g3
I0
sg4
I0
sg5
I0
sg6
I55097
sg7
I00
sg8
I0
sg9
g30
sg11
I0
sg12
I0
sg13
I0
sg14
I0
sg15
I0
sg16
I0
sg17
I0
sg18
I0
sg19
I0
sg20
I192758
sg21
I0
sg22
I0
sg23
I0
sg24
I0
sg25
I55097
sg26
I192758
sg27
I0
ssS'MURRAY JULIA H'
p357
(dp358
g3
I2192
sg4
I0
sg5
F0.044444444444444446
sg6
I57580
sg7
I00
sg8
I0
sg9
S'julia.murray@enron.com'
p359
sg11
I125000
sg12
I0
sg13
I395
sg14
I0
sg15
I45
sg16
I330
sg17
I0
sg18
I400000
sg19
F0.005018248175182482
sg20
I597461
sg21
I11
sg22
I2
sg23
I196983
sg24
I229284
sg25
I812194
sg26
I400478
sg27
I0
ssS'GARLAND C KEVIN'
p360
(dp361
g3
I209
sg4
I0
sg5
F0.6136363636363636
sg6
I48405
sg7
I00
sg8
I0
sg9
S'kevin.garland@enron.com'
p362
sg11
I375304
sg12
I0
sg13
I178
sg14
I0
sg15
I44
sg16
I60814
sg17
I0
sg18
I850000
sg19
F0.04784688995215311
sg20
I896153
sg21
I10
sg22
I27
sg23
I259907
sg24
I231946
sg25
I1566469
sg26
I636246
sg27
I0
ssS'DODSON KEITH'
p363
(dp364
g3
I176
sg4
I0
sg5
F0.21428571428571427
sg6
I28164
sg7
I00
sg8
I0
sg9
S'keith.dodson@enron.com'
p365
sg11
I0
sg12
I0
sg13
I114
sg14
I0
sg15
I14
sg16
I774
sg17
I0
sg18
I70000
sg19
F0.056818181818181816
sg20
I0
sg21
I10
sg22
I3
sg23
I0
sg24
I221003
sg25
I319941
sg26
I0
sg27
I3
ssS'YEAGER F SCOTT'
p366
(dp367
g3
I0
sg4
I0
sg5
I0
sg6
I53947
sg7
I01
sg8
I0
sg9
S'scott.yeager@enron.com'
p368
sg11
I0
sg12
I0
sg13
I0
sg14
I0
sg15
I0
sg16
I147950
sg17
I0
sg18
I0
sg19
I0
sg20
I11884758
sg21
I0
sg22
I0
sg23
I3576206
sg24
I158403
sg25
I360300
sg26
I8308552
sg27
I0
ssS'HIRKO JOSEPH'
p369
(dp370
g3
I0
sg4
I10259
sg5
I0
sg6
I77978
sg7
I01
sg8
I0
sg9
S'joe.hirko@enron.com'
p371
sg11
I0
sg12
I0
sg13
I0
sg14
I0
sg15
I0
sg16
I2856
sg17
I0
sg18
I0
sg19
I0
sg20
I30766064
sg21
I0
sg22
I0
sg23
I0
sg24
I0
sg25
I91093
sg26
I30766064
sg27
I0
ssS'DIETRICH JANET R'
p372
(dp373
g3
I2572
sg4
I0
sg5
F0.2222222222222222
sg6
I3475
sg7
I00
sg8
I0
sg9
S'janet.dietrich@enron.com'
p374
sg11
I556416
sg12
I0
sg13
I1902
sg14
I0
sg15
I63
sg16
I473
sg17
I0
sg18
I600000
sg19
F0.11858475894245724
sg20
I1865087
sg21
I305
sg22
I14
sg23
I315068
sg24
I250100
sg25
I1410464
sg26
I1550019
sg27
I0
ssS'DERRICK JR. JAMES V'
p375
(dp376
g3
I2181
sg4
I0
sg5
F0.022002200220022004
sg6
I51124
sg7
I00
sg8
I-1284000
sg9
S'james.derrick@enron.com'
p377
sg11
I484000
sg12
I-1787380
sg13
I1401
sg14
I0
sg15
I909
sg16
I7482
sg17
I0
sg18
I800000
sg19
F0.029344337459880788
sg20
I8831913
sg21
I64
sg22
I20
sg23
I1787380
sg24
I492375
sg25
I550981
sg26
I8831913
sg27
I0
ssS'FREVERT MARK A'
p378
(dp379
g3
I3275
sg4
I6426990
sg5
F0.2857142857142857
sg6
I86987
sg7
I00
sg8
I-3367011
sg9
S'mark.frevert@enron.com'
p380
sg11
I1617011
sg12
I0
sg13
I2979
sg14
I2000000
sg15
I21
sg16
I7427621
sg17
I0
sg18
I2000000
sg19
F0.07389312977099237
sg20
I14622185
sg21
I242
sg22
I6
sg23
I4188667
sg24
I1060932
sg25
I17252530
sg26
I10433518
sg27
I0
ssS'PAI LOU L'
p381
(dp382
g3
I0
sg4
I0
sg5
I0
sg6
I32047
sg7
I00
sg8
I0
sg9
S'lou.pai@enron.com'
p383
sg11
I0
sg12
I0
sg13
I0
sg14
I0
sg15
I0
sg16
I1829457
sg17
I0
sg18
I1000000
sg19
I0
sg20
I23817930
sg21
I0
sg22
I0
sg23
I8453763
sg24
I261879
sg25
I3123383
sg26
I15364167
sg27
I0
ssS'BAY FRANKLIN R'
p384
(dp385
g3
I0
sg4
I260455
sg5
I0
sg6
I129142
sg7
I00
sg8
I-201641
sg9
S'frank.bay@enron.com'
p386
sg11
I0
sg12
I-82782
sg13
I0
sg14
I0
sg15
I0
sg16
I69
sg17
I0
sg18
I400000
sg19
I0
sg20
I63014
sg21
I0
sg22
I0
sg23
I145796
sg24
I239671
sg25
I827696
sg26
I0
sg27
I0
ssS'HAYSLETT RODERICK J'
p387
(dp388
g3
I2649
sg4
I0
sg5
F0.03581526861451461
sg6
I0
sg7
I00
sg8
I0
sg9
S'rod.hayslett@enron.com'
p389
sg11
I0
sg12
I0
sg13
I571
sg14
I0
sg15
I1061
sg16
I0
sg17
I0
sg18
I0
sg19
F0.01321253303133258
sg20
I346663
sg21
I35
sg22
I38
sg23
I346663
sg24
I0
sg25
I0
sg26
I0
sg27
I0
ssS'FUGH JOHN L'
p390
(dp391
g3
I0
sg4
I50591
sg5
I0
sg6
I0
sg7
I00
sg8
I0
sg9
g30
sg11
I0
sg12
I0
sg13
I0
sg14
I0
sg15
I0
sg16
I0
sg17
I0
sg18
I0
sg19
I0
sg20
I176378
sg21
I0
sg22
I0
sg23
I0
sg24
I0
sg25
I50591
sg26
I176378
sg27
I0
ssS'FALLON JAMES B'
p392
(dp393
g3
I1755
sg4
I0
sg5
F0.49333333333333335
sg6
I95924
sg7
I00
sg8
I0
sg9
S'jim.fallon@enron.com'
p394
sg11
I374347
sg12
I0
sg13
I1604
sg14
I0
sg15
I75
sg16
I401481
sg17
I0
sg18
I2500000
sg19
F0.023931623931623933
sg20
I2332399
sg21
I42
sg22
I37
sg23
I1392142
sg24
I304588
sg25
I3676340
sg26
I940257
sg27
I0
ssS'KOENIG MARK E'
p395
(dp396
g3
I2374
sg4
I0
sg5
F0.2459016393442623
sg6
I127017
sg7
I01
sg8
I0
sg9
S'mark.koenig@enron.com'
p397
sg11
I300000
sg12
I0
sg13
I2271
sg14
I0
sg15
I61
sg16
I150458
sg17
I0
sg18
I700000
sg19
F0.02232518955349621
sg20
I1920055
sg21
I53
sg22
I15
sg23
I1248318
sg24
I309946
sg25
I1587421
sg26
I671737
sg27
I0
ssS'SAVAGE FRANK'
p398
(dp399
g3
I0
sg4
I0
sg5
I0
sg6
I0
sg7
I00
sg8
I-121284
sg9
g30
sg11
I0
sg12
I0
sg13
I0
sg14
I0
sg15
I0
sg16
I0
sg17
I125034
sg18
I0
sg19
I0
sg20
I0
sg21
I0
sg22
I0
sg23
I0
sg24
I0
sg25
I3750
sg26
I0
sg27
I0
ssS'IZZO LAWRENCE L'
p400
(dp401
g3
I496
sg4
I0
sg5
F0.2631578947368421
sg6
I28093
sg7
I00
sg8
I0
sg9
S'larry.izzo@enron.com'
p402
sg11
I312500
sg12
I0
sg13
I437
sg14
I0
sg15
I19
sg16
I1553729
sg17
I0
sg18
I0
sg19
F0.056451612903225805
sg20
I5819980
sg21
I28
sg22
I5
sg23
I3654808
sg24
I85274
sg25
I1979596
sg26
I2165172
sg27
I0
ssS'TILNEY ELIZABETH A'
p403
(dp404
g3
I460
sg4
I0
sg5
F0.5789473684210527
sg6
I0
sg7
I00
sg8
I-575000
sg9
S'elizabeth.tilney@enron.com'
p405
sg11
I275000
sg12
I0
sg13
I379
sg14
I0
sg15
I19
sg16
I152055
sg17
I0
sg18
I300000
sg19
F0.021739130434782608
sg20
I1168042
sg21
I10
sg22
I11
sg23
I576792
sg24
I247338
sg25
I399393
sg26
I591250
sg27
I0
ssS'MARTIN AMANDA K'
p406
(dp407
g3
I1522
sg4
I85430
sg5
F0.0
sg6
I8211
sg7
I00
sg8
I0
sg9
S'a..martin@enron.com'
p408
sg11
I5145434
sg12
I0
sg13
I477
sg14
I0
sg15
I230
sg16
I2818454
sg17
I0
sg18
I0
sg19
F0.005256241787122208
sg20
I2070306
sg21
I8
sg22
I0
sg23
I0
sg24
I349487
sg25
I8407016
sg26
I2070306
sg27
I0
ssS'BUY RICHARD B'
p409
(dp410
g3
I3523
sg4
I649584
sg5
F0.06742640075973409
sg6
I0
sg7
I00
sg8
I-694862
sg9
S'rick.buy@enron.com'
p411
sg11
I769862
sg12
I0
sg13
I2333
sg14
I0
sg15
I1053
sg16
I400572
sg17
I0
sg18
I900000
sg19
F0.04428044280442804
sg20
I3444470
sg21
I156
sg22
I71
sg23
I901657
sg24
I330546
sg25
I2355702
sg26
I2542813
sg27
I0
ssS'GRAMM WENDY L'
p412
(dp413
g3
I0
sg4
I0
sg5
I0
sg6
I0
sg7
I00
sg8
I0
sg9
g30
sg11
I0
sg12
I0
sg13
I0
sg14
I0
sg15
I0
sg16
I0
sg17
I119292
sg18
I0
sg19
I0
sg20
I0
sg21
I0
sg22
I0
sg23
I0
sg24
I0
sg25
I119292
sg26
I0
sg27
I0
ssS'CAUSEY RICHARD A'
p414
(dp415
g3
I1892
sg4
I0
sg5
F0.24489795918367346
sg6
I30674
sg7
I01
sg8
I-235000
sg9
S'richard.causey@enron.com'
p416
sg11
I350000
sg12
I0
sg13
I1585
sg14
I0
sg15
I49
sg16
I307895
sg17
I0
sg18
I1000000
sg19
F0.0306553911205074
sg20
I2502063
sg21
I58
sg22
I12
sg23
I2502063
sg24
I415189
sg25
I1868758
sg26
I0
sg27
I0
ssS'TAYLOR MITCHELL S'
p417
(dp418
g3
I533
sg4
I227449
sg5
F0.0
sg6
I0
sg7
I00
sg8
I0
sg9
S'mitchell.taylor@enron.com'
p419
sg11
I0
sg12
I0
sg13
I300
sg14
I0
sg15
I29
sg16
I0
sg17
I0
sg18
I600000
sg19
F0.0
sg20
I3745048
sg21
I0
sg22
I0
sg23
I563798
sg24
I265214
sg25
I1092663
sg26
I3181250
sg27
I0
ssS'DONAHUE JR JEFFREY M'
p420
(dp421
g3
I865
sg4
I0
sg5
F0.5
sg6
I96268
sg7
I00
sg8
I-300000
sg9
S'jeff.donahue@enron.com'
p422
sg11
I0
sg12
I0
sg13
I772
sg14
I0
sg15
I22
sg16
I891
sg17
I0
sg18
I800000
sg19
F0.21734104046242775
sg20
I1080988
sg21
I188
sg22
I11
sg23
I315068
sg24
I278601
sg25
I875760
sg26
I765920
sg27
I0
ssS'GLISAN JR BEN F'
p423
(dp424
g3
I873
sg4
I0
sg5
F0.375
sg6
I125978
sg7
I01
sg8
I0
sg9
S'ben.glisan@enron.com'
p425
sg11
I71023
sg12
I0
sg13
I874
sg14
I0
sg15
I16
sg16
I200308
sg17
I0
sg18
I600000
sg19
F0.05956471935853379
sg20
I778546
sg21
I52
sg22
I6
sg23
I393818
sg24
I274975
sg25
I1272284
sg26
I384728
sg27
I0
ss.