(lp0
S'poi'
p1
aS'salary'
p2
aS'total_stock_value'
p3
aS'expenses'
p4
aS'bonus'
p5
aS'exercised_stock_options'
p6
aS'deferred_income'
p7
aS'to_poi_fraction'
p8
aS'from_poi_to_this_person'
p9
aS'from_poi_fraction'
p10
aS'shared_receipt_with_poi'
p11
a.